target datalayout = "e-m:e-p270:32:32-p271:32:32-p272:64:64-i64:64-i128:128-f80:128-n8:16:32:64-S128"
target triple = "x86_64-unknown-linux-gnu"

%"struct.node::AssertionInfo" = type { ptr, ptr, ptr }
%"class.v8::IndirectHandleBase" = type { ptr }
%"class.v8::Local.312" = type { %"class.v8::LocalBase.313" }
%"class.v8::LocalBase.313" = type { %"class.v8::IndirectHandleBase" }
%"struct.v8::HeapProfiler::HeapSnapshotOptions" = type <{ ptr, ptr, i32, i32, i32, [4 x i8] }>
%"class.v8::Local.333" = type { %"class.v8::LocalBase.334" }
%"class.v8::LocalBase.334" = type { %"class.v8::IndirectHandleBase" }
%"class.v8::Local.335" = type { %"class.v8::LocalBase.336" }
%"class.v8::LocalBase.336" = type { %"class.v8::IndirectHandleBase" }

@_ZZN4node4heap22GetHeapSnapshotOptionsEN2v85LocalINS1_5ValueEEEE4args = internal constant %"struct.node::AssertionInfo" { ptr @.str.4, ptr @.str.5, ptr @.str.6 }, align 8

; Function Attrs: mustprogress nounwind uwtable
define linkonce_odr dso_local void @_ZN2v812HeapProfiler19HeapSnapshotOptionsC2Ev(ptr noundef nonnull align 8 dereferenceable(32) %this) unnamed_addr #4 comdat align 2 {
entry:
  %this.addr = alloca ptr, align 8
  store ptr %this, ptr %this.addr, align 8
  %this1 = load ptr, ptr %this.addr, align 8
  %control = getelementptr inbounds %"struct.v8::HeapProfiler::HeapSnapshotOptions", ptr %this1, i32 0, i32 0
  store ptr null, ptr %control, align 8
  %global_object_name_resolver = getelementptr inbounds %"struct.v8::HeapProfiler::HeapSnapshotOptions", ptr %this1, i32 0, i32 1
  store ptr null, ptr %global_object_name_resolver, align 8
  %snapshot_mode = getelementptr inbounds %"struct.v8::HeapProfiler::HeapSnapshotOptions", ptr %this1, i32 0, i32 2
  store i32 0, ptr %snapshot_mode, align 8
  %numerics_mode = getelementptr inbounds %"struct.v8::HeapProfiler::HeapSnapshotOptions", ptr %this1, i32 0, i32 3
  store i32 0, ptr %numerics_mode, align 4
  %stack_state = getelementptr inbounds %"struct.v8::HeapProfiler::HeapSnapshotOptions", ptr %this1, i32 0, i32 4
  store i32 0, ptr %stack_state, align 8
  ret void
}

; Function Attrs: mustprogress nounwind uwtable
define dso_local void @_ZN4node4heap22GetHeapSnapshotOptionsEN2v85LocalINS1_5ValueEEE(ptr noalias sret(%"struct.v8::HeapProfiler::HeapSnapshotOptions") align 8 %agg.result, ptr %options_value.coerce) #4 {
entry:
  %slot.addr.i59 = alloca ptr, align 8
  %this.addr.i.i55 = alloca ptr, align 8
  %this.addr.i56 = alloca ptr, align 8
  %slot.addr.i54 = alloca ptr, align 8
  %slot.addr.i53 = alloca ptr, align 8
  %this.addr.i.i48 = alloca ptr, align 8
  %this.addr.i49 = alloca ptr, align 8
  %this.addr.i.i44 = alloca ptr, align 8
  %this.addr.i45 = alloca ptr, align 8
  %this.addr.i41 = alloca ptr, align 8
  %other.addr.i42 = alloca ptr, align 8
  %this.addr.i39 = alloca ptr, align 8
  %other.addr.i = alloca ptr, align 8
  %retval.i38 = alloca %"class.v8::Local.333", align 8
  %that.i = alloca %"class.v8::Local.312", align 8
  %ref.tmp.i = alloca %"class.v8::LocalBase.334", align 8
  %slot.addr.i = alloca ptr, align 8
  %this.addr.i.i = alloca ptr, align 8
  %this.addr.i36 = alloca ptr, align 8
  %this.addr.i33 = alloca ptr, align 8
  %this.addr.i30 = alloca ptr, align 8
  %this.addr.i27 = alloca ptr, align 8
  %retval.i = alloca %"class.v8::Local.333", align 8
  %this.addr.i24 = alloca ptr, align 8
  %agg.tmp.i = alloca %"class.v8::Local.312", align 8
  %this.addr.i = alloca ptr, align 8
  %options_value = alloca %"class.v8::Local.312", align 8
  %arr = alloca %"class.v8::Local.333", align 8
  %options = alloca ptr, align 8
  %ref.tmp = alloca %"class.v8::Local.335", align 8
  %coerce.dive = getelementptr inbounds %"class.v8::Local.312", ptr %options_value, i32 0, i32 0
  %coerce.dive1 = getelementptr inbounds %"class.v8::LocalBase.313", ptr %coerce.dive, i32 0, i32 0
  %coerce.dive2 = getelementptr inbounds %"class.v8::IndirectHandleBase", ptr %coerce.dive1, i32 0, i32 0
  store ptr %options_value.coerce, ptr %coerce.dive2, align 8
  br label %do.body

do.body:                                          ; preds = %entry
  store ptr %options_value, ptr %this.addr.i, align 8
  %this1.i = load ptr, ptr %this.addr.i, align 8
  store ptr %this1.i, ptr %this.addr.i36, align 8
  %this1.i37 = load ptr, ptr %this.addr.i36, align 8
  store ptr %this1.i37, ptr %this.addr.i.i, align 8
  %this1.i.i = load ptr, ptr %this.addr.i.i, align 8
  %0 = load ptr, ptr %this1.i.i, align 8
  store ptr %0, ptr %slot.addr.i, align 8
  %1 = load ptr, ptr %slot.addr.i, align 8
  %call3 = call noundef zeroext i1 @_ZNK2v85Value12IsUint8ArrayEv(ptr noundef nonnull align 1 dereferenceable(1) %1)
  %lnot = xor i1 %call3, true
  %lnot4 = xor i1 %lnot, true
  %lnot5 = xor i1 %lnot4, true
  br i1 %lnot5, label %if.then, label %if.end

if.then:                                          ; preds = %do.body
  br label %do.body6

do.body6:                                         ; preds = %if.then
  call void @_ZN4node6AssertERKNS_13AssertionInfoE(ptr noundef nonnull align 8 dereferenceable(24) @_ZZN4node4heap22GetHeapSnapshotOptionsEN2v85LocalINS1_5ValueEEEE4args)
  call void @abort() #15
  unreachable

do.end:                                           ; No predecessors!
  br label %if.end

if.end:                                           ; preds = %do.end, %do.body
  br label %do.end7

do.end7:                                          ; preds = %if.end
  store ptr %options_value, ptr %this.addr.i24, align 8
  %this1.i25 = load ptr, ptr %this.addr.i24, align 8
  call void @llvm.memcpy.p0.p0.i64(ptr align 8 %agg.tmp.i, ptr align 8 %this1.i25, i64 8, i1 false)
  %2 = load ptr, ptr %agg.tmp.i, align 8
  store ptr %2, ptr %that.i, align 8
  store ptr %ref.tmp.i, ptr %this.addr.i39, align 8
  store ptr %that.i, ptr %other.addr.i, align 8
  %this1.i40 = load ptr, ptr %this.addr.i39, align 8
  %3 = load ptr, ptr %other.addr.i, align 8
  call void @llvm.memcpy.p0.p0.i64(ptr align 8 %this1.i40, ptr align 8 %3, i64 8, i1 false)
  store ptr %retval.i38, ptr %this.addr.i41, align 8
  store ptr %ref.tmp.i, ptr %other.addr.i42, align 8
  %this1.i43 = load ptr, ptr %this.addr.i41, align 8
  %4 = load ptr, ptr %other.addr.i42, align 8
  call void @llvm.memcpy.p0.p0.i64(ptr align 8 %this1.i43, ptr align 8 %4, i64 8, i1 false)
  %5 = load ptr, ptr %retval.i38, align 8
  store ptr %5, ptr %retval.i, align 8
  %6 = load ptr, ptr %retval.i, align 8
  %coerce.dive9 = getelementptr inbounds %"class.v8::Local.333", ptr %arr, i32 0, i32 0
  %coerce.dive10 = getelementptr inbounds %"class.v8::LocalBase.334", ptr %coerce.dive9, i32 0, i32 0
  %coerce.dive11 = getelementptr inbounds %"class.v8::IndirectHandleBase", ptr %coerce.dive10, i32 0, i32 0
  store ptr %6, ptr %coerce.dive11, align 8
  store ptr %arr, ptr %this.addr.i30, align 8
  %this1.i31 = load ptr, ptr %this.addr.i30, align 8
  store ptr %this1.i31, ptr %this.addr.i45, align 8
  %this1.i46 = load ptr, ptr %this.addr.i45, align 8
  store ptr %this1.i46, ptr %this.addr.i.i44, align 8
  %this1.i.i47 = load ptr, ptr %this.addr.i.i44, align 8
  %7 = load ptr, ptr %this1.i.i47, align 8
  store ptr %7, ptr %slot.addr.i54, align 8
  %8 = load ptr, ptr %slot.addr.i54, align 8
  %call13 = call ptr @_ZN2v815ArrayBufferView6BufferEv(ptr noundef nonnull align 1 dereferenceable(1) %8)
  %coerce.dive14 = getelementptr inbounds %"class.v8::Local.335", ptr %ref.tmp, i32 0, i32 0
  %coerce.dive15 = getelementptr inbounds %"class.v8::LocalBase.336", ptr %coerce.dive14, i32 0, i32 0
  %coerce.dive16 = getelementptr inbounds %"class.v8::IndirectHandleBase", ptr %coerce.dive15, i32 0, i32 0
  store ptr %call13, ptr %coerce.dive16, align 8
  store ptr %ref.tmp, ptr %this.addr.i33, align 8
  %this1.i34 = load ptr, ptr %this.addr.i33, align 8
  store ptr %this1.i34, ptr %this.addr.i56, align 8
  %this1.i57 = load ptr, ptr %this.addr.i56, align 8
  store ptr %this1.i57, ptr %this.addr.i.i55, align 8
  %this1.i.i58 = load ptr, ptr %this.addr.i.i55, align 8
  %9 = load ptr, ptr %this1.i.i58, align 8
  store ptr %9, ptr %slot.addr.i59, align 8
  %10 = load ptr, ptr %slot.addr.i59, align 8
  %call18 = call noundef ptr @_ZNK2v811ArrayBuffer4DataEv(ptr noundef nonnull align 1 dereferenceable(1) %10)
  store ptr %arr, ptr %this.addr.i27, align 8
  %this1.i28 = load ptr, ptr %this.addr.i27, align 8
  store ptr %this1.i28, ptr %this.addr.i49, align 8
  %this1.i50 = load ptr, ptr %this.addr.i49, align 8
  store ptr %this1.i50, ptr %this.addr.i.i48, align 8
  %this1.i.i51 = load ptr, ptr %this.addr.i.i48, align 8
  %11 = load ptr, ptr %this1.i.i51, align 8
  store ptr %11, ptr %slot.addr.i53, align 8
  %12 = load ptr, ptr %slot.addr.i53, align 8
  %call20 = call noundef i64 @_ZN2v815ArrayBufferView10ByteOffsetEv(ptr noundef nonnull align 1 dereferenceable(1) %12)
  %add.ptr = getelementptr inbounds i8, ptr %call18, i64 %call20
  store ptr %add.ptr, ptr %options, align 8
  call void @_ZN2v812HeapProfiler19HeapSnapshotOptionsC2Ev(ptr noundef nonnull align 8 dereferenceable(32) %agg.result)
  %13 = load ptr, ptr %options, align 8
  %arrayidx = getelementptr inbounds i8, ptr %13, i64 0
  %14 = load i8, ptr %arrayidx, align 1
  %tobool = icmp ne i8 %14, 0
  %cond = select i1 %tobool, i32 1, i32 0
  %snapshot_mode = getelementptr inbounds %"struct.v8::HeapProfiler::HeapSnapshotOptions", ptr %agg.result, i32 0, i32 2
  store i32 %cond, ptr %snapshot_mode, align 8
  %15 = load ptr, ptr %options, align 8
  %arrayidx21 = getelementptr inbounds i8, ptr %15, i64 1
  %16 = load i8, ptr %arrayidx21, align 1
  %tobool22 = icmp ne i8 %16, 0
  %cond23 = select i1 %tobool22, i32 1, i32 0
  %numerics_mode = getelementptr inbounds %"struct.v8::HeapProfiler::HeapSnapshotOptions", ptr %agg.result, i32 0, i32 3
  store i32 %cond23, ptr %numerics_mode, align 4
  ret void
}