; Function Attrs: mustprogress nounwind uwtable
define dso_local void @_ZN4node4heap22GetHeapSnapshotOptionsEN2v85LocalINS1_5ValueEEE(ptr noalias nocapture writeonly sret(%"struct.v8::HeapProfiler::HeapSnapshotOptions") align 8 %agg.result, ptr nonnull %options_value.coerce) local_unnamed_addr #3 {
entry:
  %call3 = tail call noundef zeroext i1 @_ZNK2v85Value12IsUint8ArrayEv(ptr noundef nonnull align 1 dereferenceable(1) %options_value.coerce) #22
  br i1 %call3, label %do.end7, label %do.body6

do.body6:                                         ; preds = %entry
  tail call void @_ZN4node6AssertERKNS_13AssertionInfoE(ptr noundef nonnull align 8 dereferenceable(24) @_ZZN4node4heap22GetHeapSnapshotOptionsEN2v85LocalINS1_5ValueEEEE4args) #22
  tail call void @abort() #26
  unreachable

do.end7:                                          ; preds = %entry
  %call13 = tail call ptr @_ZN2v815ArrayBufferView6BufferEv(ptr noundef nonnull align 1 dereferenceable(1) %options_value.coerce) #22
  %call18 = tail call noundef ptr @_ZNK2v811ArrayBuffer4DataEv(ptr noundef nonnull align 1 dereferenceable(1) %call13) #22
  %call20 = tail call noundef i64 @_ZN2v815ArrayBufferView10ByteOffsetEv(ptr noundef nonnull align 1 dereferenceable(1) %options_value.coerce) #22
  %add.ptr = getelementptr inbounds i8, ptr %call18, i64 %call20
  tail call void @llvm.memset.p0.i64(ptr noundef nonnull align 8 dereferenceable(28) %agg.result, i8 0, i64 28, i1 false)
  %snapshot_mode = getelementptr inbounds i8, ptr %agg.result, i64 16
  %0 = load <2 x i8>, ptr %add.ptr, align 1
  %1 = icmp ne <2 x i8> %0, zeroinitializer
  %2 = zext <2 x i1> %1 to <2 x i32>
  store <2 x i32> %2, ptr %snapshot_mode, align 8
  ret void
}